; Function Attrs: nofree norecurse nosync nounwind memory(argmem: readwrite) uwtable
define hidden void @loadcompressed512(ptr noundef writeonly captures(none) %0, ptr noundef readonly captures(none) %1, ptr noundef readonly captures(none) %2, i32 noundef %3) local_unnamed_addr #3 {
  %5 = alloca [8 x i32], align 16
  %6 = alloca [8 x i64], align 16
  %.sroa.03.0.copyload = load i64, ptr %2, align 1
  %.sroa.44.0..sroa_idx = getelementptr inbounds nuw i8, ptr %2, i64 8
  %.sroa.44.0.copyload = load i64, ptr %.sroa.44.0..sroa_idx, align 1
  %.sroa.5.0..sroa_idx = getelementptr inbounds nuw i8, ptr %2, i64 16
  %.sroa.5.0.copyload = load i64, ptr %.sroa.5.0..sroa_idx, align 1
  %.sroa.6.0..sroa_idx = getelementptr inbounds nuw i8, ptr %2, i64 24
  %.sroa.6.0.copyload = load i64, ptr %.sroa.6.0..sroa_idx, align 1
  %.sroa.7.0..sroa_idx = getelementptr inbounds nuw i8, ptr %2, i64 32
  %.sroa.7.0.copyload = load i64, ptr %.sroa.7.0..sroa_idx, align 1
  %.sroa.8.0..sroa_idx = getelementptr inbounds nuw i8, ptr %2, i64 40
  %.sroa.8.0.copyload = load i64, ptr %.sroa.8.0..sroa_idx, align 1
  %.sroa.9.0..sroa_idx = getelementptr inbounds nuw i8, ptr %2, i64 48
  %.sroa.9.0.copyload = load i64, ptr %.sroa.9.0..sroa_idx, align 1
  %.sroa.10.0..sroa_idx = getelementptr inbounds nuw i8, ptr %2, i64 56
  %.sroa.10.0.copyload = load i64, ptr %.sroa.10.0..sroa_idx, align 1
  call void @llvm.lifetime.start.p0(i64 32, ptr nonnull %5) #7, !noalias !8
  %7 = tail call range(i64 0, 65) i64 @llvm.ctpop.i64(i64 %.sroa.03.0.copyload)
  %8 = trunc nuw nsw i64 %7 to i32
  store i32 %8, ptr %5, align 16, !noalias !8
  %9 = getelementptr inbounds nuw i8, ptr %5, i64 4
  %10 = tail call range(i64 0, 65) i64 @llvm.ctpop.i64(i64 %.sroa.44.0.copyload)
  %11 = trunc nuw nsw i64 %10 to i32
  store i32 %11, ptr %9, align 4, !noalias !8
  %12 = getelementptr inbounds nuw i8, ptr %5, i64 8
  %13 = tail call range(i64 0, 65) i64 @llvm.ctpop.i64(i64 %.sroa.5.0.copyload)
  %14 = trunc nuw nsw i64 %13 to i32
  store i32 %14, ptr %12, align 8, !noalias !8
  %15 = getelementptr inbounds nuw i8, ptr %5, i64 12
  %16 = tail call range(i64 0, 65) i64 @llvm.ctpop.i64(i64 %.sroa.6.0.copyload)
  %17 = trunc nuw nsw i64 %16 to i32
  store i32 %17, ptr %15, align 4, !noalias !8
  %18 = getelementptr inbounds nuw i8, ptr %5, i64 16
  %19 = tail call range(i64 0, 65) i64 @llvm.ctpop.i64(i64 %.sroa.7.0.copyload)
  %20 = trunc nuw nsw i64 %19 to i32
  store i32 %20, ptr %18, align 16, !noalias !8
  %21 = getelementptr inbounds nuw i8, ptr %5, i64 20
  %22 = tail call range(i64 0, 65) i64 @llvm.ctpop.i64(i64 %.sroa.8.0.copyload)
  %23 = trunc nuw nsw i64 %22 to i32
  store i32 %23, ptr %21, align 4, !noalias !8
  %24 = getelementptr inbounds nuw i8, ptr %5, i64 24
  %25 = tail call range(i64 0, 65) i64 @llvm.ctpop.i64(i64 %.sroa.9.0.copyload)
  %26 = trunc nuw nsw i64 %25 to i32
  store i32 %26, ptr %24, align 8, !noalias !8
  %27 = getelementptr inbounds nuw i8, ptr %5, i64 28
  %28 = tail call range(i64 0, 65) i64 @llvm.ctpop.i64(i64 %.sroa.10.0.copyload)
  %29 = trunc nuw nsw i64 %28 to i32
  store i32 %29, ptr %27, align 4, !noalias !8
  call void @llvm.lifetime.start.p0(i64 64, ptr nonnull %6) #7, !noalias !8
  br label %30

30:                                               ; preds = %4, %._crit_edge
  %indvars.iv = phi i64 [ 0, %4 ], [ %indvars.iv.next, %._crit_edge ]
  %.0.i15 = phi ptr [ %1, %4 ], [ %.1.i.lcssa, %._crit_edge ]
  %.032.i14 = phi i32 [ 0, %4 ], [ %.133.i.lcssa, %._crit_edge ]
  %31 = getelementptr inbounds nuw i32, ptr %5, i64 %indvars.iv
  %32 = load i32, ptr %31, align 4, !noalias !8
  %.not.i5 = icmp eq i32 %32, 0
  br i1 %.not.i5, label %._crit_edge, label %.lr.ph

.lr.ph:                                           ; preds = %30, %46
  %.1.i10 = phi ptr [ %53, %46 ], [ %.0.i15, %30 ]
  %.133.i9 = phi i32 [ 0, %46 ], [ %.032.i14, %30 ]
  %.036.i8 = phi i32 [ %51, %46 ], [ 0, %30 ]
  %.039.i7 = phi i32 [ %52, %46 ], [ %32, %30 ]
  %.042.i6 = phi i64 [ %50, %46 ], [ 0, %30 ]
  %33 = load i8, ptr %.1.i10, align 1, !noalias !8
  %34 = zext i8 %33 to i32
  %35 = lshr i32 %34, %.133.i9
  %36 = sub i32 8, %.133.i9
  %.not47.i = icmp ugt i32 %.039.i7, %36
  br i1 %.not47.i, label %46, label %37

37:                                               ; preds = %.lr.ph
  %notmask.i = shl nsw i32 -1, %.039.i7
  %38 = xor i32 %notmask.i, -1
  %39 = and i32 %35, %38
  %40 = zext nneg i32 %39 to i64
  %41 = zext nneg i32 %.036.i8 to i64
  %42 = shl i64 %40, %41
  %43 = or i64 %42, %.042.i6
  %44 = add i32 %.133.i9, %.039.i7
  %45 = icmp ugt i32 %44, 7
  %spec.select = select i1 %45, i32 0, i32 %44
  %spec.select39.idx = zext i1 %45 to i64
  %spec.select39 = getelementptr inbounds nuw i8, ptr %.1.i10, i64 %spec.select39.idx
  br label %._crit_edge

46:                                               ; preds = %.lr.ph
  %47 = zext nneg i32 %35 to i64
  %48 = zext nneg i32 %.036.i8 to i64
  %49 = shl i64 %47, %48
  %50 = or i64 %49, %.042.i6
  %51 = add i32 %36, %.036.i8
  %52 = sub nuw i32 %.039.i7, %36
  %53 = getelementptr inbounds nuw i8, ptr %.1.i10, i64 1
  %.not.i = icmp eq i32 %52, 0
  br i1 %.not.i, label %._crit_edge, label %.lr.ph

._crit_edge:                                      ; preds = %46, %37, %30
  %.042.i.lcssa = phi i64 [ 0, %30 ], [ %43, %37 ], [ %50, %46 ]
  %.133.i.lcssa = phi i32 [ %.032.i14, %30 ], [ %spec.select, %37 ], [ 0, %46 ]
  %.1.i.lcssa = phi ptr [ %.0.i15, %30 ], [ %spec.select39, %37 ], [ %53, %46 ]
  %54 = getelementptr inbounds nuw i64, ptr %6, i64 %indvars.iv
  store i64 %.042.i.lcssa, ptr %54, align 8, !noalias !8
  %indvars.iv.next = add nuw nsw i64 %indvars.iv, 1
  %exitcond.not = icmp eq i64 %indvars.iv.next, 8
  br i1 %exitcond.not, label %unpack_bits_64.exit, label %30

unpack_bits_64.exit:                              ; preds = %._crit_edge
  %55 = load i64, ptr %6, align 16, !noalias !8
  %56 = tail call i64 @llvm.x86.bmi.pdep.64(i64 %55, i64 %.sroa.03.0.copyload)
  %57 = getelementptr inbounds nuw i8, ptr %6, i64 8
  %58 = load i64, ptr %57, align 8, !noalias !8
  %59 = tail call i64 @llvm.x86.bmi.pdep.64(i64 %58, i64 %.sroa.44.0.copyload)
  %60 = getelementptr inbounds nuw i8, ptr %6, i64 16
  %61 = load i64, ptr %60, align 16, !noalias !8
  %62 = tail call i64 @llvm.x86.bmi.pdep.64(i64 %61, i64 %.sroa.5.0.copyload)
  %63 = getelementptr inbounds nuw i8, ptr %6, i64 24
  %64 = load i64, ptr %63, align 8, !noalias !8
  %65 = tail call i64 @llvm.x86.bmi.pdep.64(i64 %64, i64 %.sroa.6.0.copyload)
  %66 = getelementptr inbounds nuw i8, ptr %6, i64 32
  %67 = load i64, ptr %66, align 16, !noalias !8
  %68 = tail call i64 @llvm.x86.bmi.pdep.64(i64 %67, i64 %.sroa.7.0.copyload)
  %69 = getelementptr inbounds nuw i8, ptr %6, i64 40
  %70 = load i64, ptr %69, align 8, !noalias !8
  %71 = tail call i64 @llvm.x86.bmi.pdep.64(i64 %70, i64 %.sroa.8.0.copyload)
  %72 = getelementptr inbounds nuw i8, ptr %6, i64 48
  %73 = load i64, ptr %72, align 16, !noalias !8
  %74 = tail call i64 @llvm.x86.bmi.pdep.64(i64 %73, i64 %.sroa.9.0.copyload)
  %75 = getelementptr inbounds nuw i8, ptr %6, i64 56
  %76 = load i64, ptr %75, align 8, !noalias !8
  %77 = tail call i64 @llvm.x86.bmi.pdep.64(i64 %76, i64 %.sroa.10.0.copyload)
  %78 = insertelement <4 x i64> poison, i64 %56, i64 0
  %79 = insertelement <4 x i64> %78, i64 %59, i64 1
  %80 = insertelement <4 x i64> %79, i64 %62, i64 2
  %81 = insertelement <4 x i64> %80, i64 %65, i64 3
  %82 = insertelement <4 x i64> poison, i64 %68, i64 0
  %83 = insertelement <4 x i64> %82, i64 %71, i64 1
  %84 = insertelement <4 x i64> %83, i64 %74, i64 2
  %85 = insertelement <4 x i64> %84, i64 %77, i64 3
  call void @llvm.lifetime.end.p0(i64 64, ptr nonnull %6) #7, !noalias !8
  call void @llvm.lifetime.end.p0(i64 32, ptr nonnull %5) #7, !noalias !8
  store <4 x i64> %81, ptr %0, align 64
  %.sroa.4.0..sroa_idx = getelementptr inbounds nuw i8, ptr %0, i64 32
  store <4 x i64> %85, ptr %.sroa.4.0..sroa_idx, align 32
  ret void
}